target datalayout = "e-m:e-p270:32:32-p271:32:32-p272:64:64-i64:64-i128:128-f80:128-n8:16:32:64-S128"
target triple = "x86_64-pc-linux-gnu"

%struct.Gia_Man_t_ = type { ptr, ptr, i32, i32, i32, i32, ptr, ptr, i32, i32, i32, ptr, ptr, %struct.Vec_Int_t_, %struct.Vec_Int_t_, i32, i32, i32, %struct.Vec_Int_t_, ptr, ptr, ptr, i32, i32, i32, i32, ptr, ptr, ptr, ptr, ptr, i32, i32, ptr, i32, ptr, ptr, ptr, ptr, ptr, ptr, ptr, ptr, ptr, ptr, ptr, ptr, ptr, ptr, ptr, ptr, ptr, ptr, %struct.Vec_Int_t_, %struct.Vec_Int_t_, ptr, ptr, ptr, ptr, ptr, ptr, ptr, ptr, ptr, ptr, ptr, ptr, ptr, ptr, ptr, ptr, ptr, ptr, ptr, ptr, ptr, i32, float, float, ptr, ptr, i32, ptr, ptr, ptr, ptr, ptr, ptr, ptr, ptr, ptr, ptr, ptr, ptr, ptr, ptr, ptr, i64, i64, ptr, ptr, i32, i32, i32, i32, i32, i32, i32, i32, i32, i32, i32, i32, ptr, ptr, ptr, ptr, ptr, ptr, ptr, ptr, i32, i32, i32, ptr, i32, i32, ptr, ptr, ptr, ptr, ptr, ptr, i32, i32, ptr, %struct.Vec_Int_t_, %struct.Vec_Int_t_, %struct.Vec_Int_t_, ptr, ptr, ptr }
%struct.Vec_Int_t_ = type { i32, i32, ptr }
%struct.Gia_Obj_t_ = type <{ i64, i32 }>

@.str.12 = private unnamed_addr constant [2 x i8] c"\0A\00", align 1

; Function Attrs: nounwind uwtable
define internal i32 @Abc_Lit2Var(i32 noundef %0) #0 {
  %2 = alloca i32, align 4
  store i32 %0, ptr %2, align 4
  %3 = load i32, ptr %2, align 4
  %4 = ashr i32 %3, 1
  ret i32 %4
}

; Function Attrs: nounwind uwtable
define internal i32 @Gia_ObjFaninId1(ptr noundef %0, i32 noundef %1) #0 {
  %3 = alloca ptr, align 8
  %4 = alloca i32, align 4
  store ptr %0, ptr %3, align 8
  store i32 %1, ptr %4, align 4
  %5 = load i32, ptr %4, align 4
  %6 = load ptr, ptr %3, align 8
  %7 = load i64, ptr %6, align 4
  %8 = lshr i64 %7, 32
  %9 = and i64 %8, 536870911
  %10 = trunc i64 %9 to i32
  %11 = sub nsw i32 %5, %10
  ret i32 %11
}

; Function Attrs: nounwind uwtable
define internal i32 @Gia_ObjFaninId0(ptr noundef %0, i32 noundef %1) #0 {
  %3 = alloca ptr, align 8
  %4 = alloca i32, align 4
  store ptr %0, ptr %3, align 8
  store i32 %1, ptr %4, align 4
  %5 = load i32, ptr %4, align 4
  %6 = load ptr, ptr %3, align 8
  %7 = load i64, ptr %6, align 4
  %8 = and i64 %7, 536870911
  %9 = trunc i64 %8 to i32
  %10 = sub nsw i32 %5, %9
  ret i32 %10
}

; Function Attrs: nounwind uwtable
define internal i32 @Gia_ObjId(ptr noundef %0, ptr noundef %1) #0 {
  %3 = alloca ptr, align 8
  %4 = alloca ptr, align 8
  store ptr %0, ptr %3, align 8
  store ptr %1, ptr %4, align 8
  %5 = load ptr, ptr %4, align 8
  %6 = load ptr, ptr %3, align 8
  %7 = getelementptr inbounds %struct.Gia_Man_t_, ptr %6, i32 0, i32 6
  %8 = load ptr, ptr %7, align 8
  %9 = ptrtoint ptr %5 to i64
  %10 = ptrtoint ptr %8 to i64
  %11 = sub i64 %9, %10
  %12 = sdiv exact i64 %11, 12
  %13 = trunc i64 %12 to i32
  ret i32 %13
}

; Function Attrs: nounwind uwtable
define internal i32 @Gia_ObjFaninId2p(ptr noundef %0, ptr noundef %1) #0 {
  %3 = alloca ptr, align 8
  %4 = alloca ptr, align 8
  store ptr %0, ptr %3, align 8
  store ptr %1, ptr %4, align 8
  %5 = load ptr, ptr %3, align 8
  %6 = getelementptr inbounds %struct.Gia_Man_t_, ptr %5, i32 0, i32 7
  %7 = load ptr, ptr %6, align 8
  %8 = icmp ne ptr %7, null
  br i1 %8, label %9, label %31

9:                                                ; preds = %2
  %10 = load ptr, ptr %3, align 8
  %11 = getelementptr inbounds %struct.Gia_Man_t_, ptr %10, i32 0, i32 7
  %12 = load ptr, ptr %11, align 8
  %13 = load ptr, ptr %3, align 8
  %14 = load ptr, ptr %4, align 8
  %15 = call i32 @Gia_ObjId(ptr noundef %13, ptr noundef %14)
  %16 = sext i32 %15 to i64
  %17 = getelementptr inbounds i32, ptr %12, i64 %16
  %18 = load i32, ptr %17, align 4
  %19 = icmp ne i32 %18, 0
  br i1 %19, label %20, label %31

20:                                               ; preds = %9
  %21 = load ptr, ptr %3, align 8
  %22 = getelementptr inbounds %struct.Gia_Man_t_, ptr %21, i32 0, i32 7
  %23 = load ptr, ptr %22, align 8
  %24 = load ptr, ptr %3, align 8
  %25 = load ptr, ptr %4, align 8
  %26 = call i32 @Gia_ObjId(ptr noundef %24, ptr noundef %25)
  %27 = sext i32 %26 to i64
  %28 = getelementptr inbounds i32, ptr %23, i64 %27
  %29 = load i32, ptr %28, align 4
  %30 = call i32 @Abc_Lit2Var(i32 noundef %29)
  br label %32

31:                                               ; preds = %9, %2
  br label %32

32:                                               ; preds = %31, %20
  %33 = phi i32 [ %30, %20 ], [ -1, %31 ]
  ret i32 %33
}

; Function Attrs: nounwind uwtable
define internal i32 @Gia_ObjFaninId1p(ptr noundef %0, ptr noundef %1) #0 {
  %3 = alloca ptr, align 8
  %4 = alloca ptr, align 8
  store ptr %0, ptr %3, align 8
  store ptr %1, ptr %4, align 8
  %5 = load ptr, ptr %4, align 8
  %6 = load ptr, ptr %3, align 8
  %7 = load ptr, ptr %4, align 8
  %8 = call i32 @Gia_ObjId(ptr noundef %6, ptr noundef %7)
  %9 = call i32 @Gia_ObjFaninId1(ptr noundef %5, i32 noundef %8)
  ret i32 %9
}

; Function Attrs: nounwind uwtable
define internal i32 @Gia_ObjFaninId0p(ptr noundef %0, ptr noundef %1) #0 {
  %3 = alloca ptr, align 8
  %4 = alloca ptr, align 8
  store ptr %0, ptr %3, align 8
  store ptr %1, ptr %4, align 8
  %5 = load ptr, ptr %4, align 8
  %6 = load ptr, ptr %3, align 8
  %7 = load ptr, ptr %4, align 8
  %8 = call i32 @Gia_ObjId(ptr noundef %6, ptr noundef %7)
  %9 = call i32 @Gia_ObjFaninId0(ptr noundef %5, i32 noundef %8)
  ret i32 %9
}

; Function Attrs: nounwind uwtable
define internal ptr @Gia_ManObj(ptr noundef %0, i32 noundef %1) #0 {
  %3 = alloca ptr, align 8
  %4 = alloca i32, align 4
  store ptr %0, ptr %3, align 8
  store i32 %1, ptr %4, align 4
  %5 = load ptr, ptr %3, align 8
  %6 = getelementptr inbounds %struct.Gia_Man_t_, ptr %5, i32 0, i32 6
  %7 = load ptr, ptr %6, align 8
  %8 = load i32, ptr %4, align 4
  %9 = sext i32 %8 to i64
  %10 = getelementptr inbounds %struct.Gia_Obj_t_, ptr %7, i64 %9
  ret ptr %10
}

; Function Attrs: nounwind uwtable
define i32 @Gia_MuxRef(ptr noundef %0, i32 noundef %1) #0 {
  %3 = alloca ptr, align 8
  %4 = alloca i32, align 4
  %5 = alloca ptr, align 8
  store ptr %0, ptr %3, align 8
  store i32 %1, ptr %4, align 4
  %6 = load ptr, ptr %3, align 8
  %7 = load i32, ptr %4, align 4
  %8 = call ptr @Gia_ManObj(ptr noundef %6, i32 noundef %7)
  store ptr %8, ptr %5, align 8
  %9 = load ptr, ptr %3, align 8
  %10 = load ptr, ptr %3, align 8
  %11 = load ptr, ptr %5, align 8
  %12 = call i32 @Gia_ObjFaninId0p(ptr noundef %10, ptr noundef %11)
  %13 = call i32 @Gia_MuxRef_rec(ptr noundef %9, i32 noundef %12)
  %14 = load ptr, ptr %3, align 8
  %15 = load ptr, ptr %3, align 8
  %16 = load ptr, ptr %5, align 8
  %17 = call i32 @Gia_ObjFaninId1p(ptr noundef %15, ptr noundef %16)
  %18 = call i32 @Gia_MuxRef_rec(ptr noundef %14, i32 noundef %17)
  %19 = add nsw i32 %13, %18
  %20 = load ptr, ptr %3, align 8
  %21 = load ptr, ptr %3, align 8
  %22 = load ptr, ptr %5, align 8
  %23 = call i32 @Gia_ObjFaninId2p(ptr noundef %21, ptr noundef %22)
  %24 = call i32 @Gia_MuxRef_rec(ptr noundef %20, i32 noundef %23)
  %25 = add nsw i32 %19, %24
  %26 = add nsw i32 %25, 1
  ret i32 %26
}

; Function Attrs: nounwind uwtable
define i32 @Gia_MuxDeref(ptr noundef %0, i32 noundef %1) #0 {
  %3 = alloca ptr, align 8
  %4 = alloca i32, align 4
  %5 = alloca ptr, align 8
  store ptr %0, ptr %3, align 8
  store i32 %1, ptr %4, align 4
  %6 = load ptr, ptr %3, align 8
  %7 = load i32, ptr %4, align 4
  %8 = call ptr @Gia_ManObj(ptr noundef %6, i32 noundef %7)
  store ptr %8, ptr %5, align 8
  %9 = load ptr, ptr %3, align 8
  %10 = load ptr, ptr %3, align 8
  %11 = load ptr, ptr %5, align 8
  %12 = call i32 @Gia_ObjFaninId0p(ptr noundef %10, ptr noundef %11)
  %13 = call i32 @Gia_MuxDeref_rec(ptr noundef %9, i32 noundef %12)
  %14 = load ptr, ptr %3, align 8
  %15 = load ptr, ptr %3, align 8
  %16 = load ptr, ptr %5, align 8
  %17 = call i32 @Gia_ObjFaninId1p(ptr noundef %15, ptr noundef %16)
  %18 = call i32 @Gia_MuxDeref_rec(ptr noundef %14, i32 noundef %17)
  %19 = add nsw i32 %13, %18
  %20 = load ptr, ptr %3, align 8
  %21 = load ptr, ptr %3, align 8
  %22 = load ptr, ptr %5, align 8
  %23 = call i32 @Gia_ObjFaninId2p(ptr noundef %21, ptr noundef %22)
  %24 = call i32 @Gia_MuxDeref_rec(ptr noundef %20, i32 noundef %23)
  %25 = add nsw i32 %19, %24
  %26 = add nsw i32 %25, 1
  ret i32 %26
}

; Function Attrs: nounwind uwtable
define void @Gia_MuxStructPrint(ptr noundef %0, i32 noundef %1) #0 {
  %3 = alloca ptr, align 8
  %4 = alloca i32, align 4
  %5 = alloca i32, align 4
  %6 = alloca i32, align 4
  store ptr %0, ptr %3, align 8
  store i32 %1, ptr %4, align 4
  %7 = load ptr, ptr %3, align 8
  %8 = load i32, ptr %4, align 4
  %9 = call i32 @Gia_MuxDeref(ptr noundef %7, i32 noundef %8)
  store i32 %9, ptr %5, align 4
  %10 = load ptr, ptr %3, align 8
  %11 = load i32, ptr %4, align 4
  call void @Gia_MuxStructPrint_rec(ptr noundef %10, i32 noundef %11, i32 noundef 1)
  %12 = load ptr, ptr %3, align 8
  %13 = load i32, ptr %4, align 4
  %14 = call i32 @Gia_MuxRef(ptr noundef %12, i32 noundef %13)
  store i32 %14, ptr %6, align 4
  %15 = call i32 (ptr, ...) @printf(ptr noundef @.str.12)
  ret void
}