; Function Attrs: nounwind uwtable
define void @Gia_MuxStructPrint(ptr noundef %0, i32 noundef %1) local_unnamed_addr #0 {
  %3 = getelementptr i8, ptr %0, i64 32
  %.val.i = load ptr, ptr %3, align 8
  %4 = sext i32 %1 to i64
  %5 = getelementptr inbounds %struct.Gia_Obj_t_, ptr %.val.i, i64 %4
  %6 = ptrtoint ptr %5 to i64
  %.val3.i.i = load i64, ptr %5, align 4
  %7 = trunc i64 %.val3.i.i to i32
  %8 = and i32 %7, 536870911
  %9 = sub nsw i32 %1, %8
  %10 = tail call i32 @Gia_MuxDeref_rec(ptr noundef %0, i32 noundef %9)
  %.val11.i = load ptr, ptr %3, align 8
  %11 = ptrtoint ptr %.val11.i to i64
  %12 = sub i64 %6, %11
  %13 = sdiv exact i64 %12, 12
  %14 = trunc i64 %13 to i32
  %.val3.i12.i = load i64, ptr %5, align 4
  %15 = lshr i64 %.val3.i12.i, 32
  %16 = trunc nuw i64 %15 to i32
  %17 = and i32 %16, 536870911
  %18 = sub nsw i32 %14, %17
  %19 = tail call i32 @Gia_MuxDeref_rec(ptr noundef %0, i32 noundef %18)
  %20 = getelementptr inbounds nuw i8, ptr %0, i64 40
  %21 = load ptr, ptr %20, align 8
  %.not.i.i = icmp eq ptr %21, null
  br i1 %.not.i.i, label %Gia_MuxDeref.exit, label %22

22:                                               ; preds = %2
  %.val8.i.i = load ptr, ptr %3, align 8
  %23 = ptrtoint ptr %.val8.i.i to i64
  %24 = sub i64 %6, %23
  %25 = sdiv exact i64 %24, 12
  %sext.i.i = shl i64 %25, 32
  %26 = ashr exact i64 %sext.i.i, 30
  %27 = getelementptr inbounds i8, ptr %21, i64 %26
  %28 = load i32, ptr %27, align 4
  %.not7.i.i = icmp eq i32 %28, 0
  %29 = ashr i32 %28, 1
  %spec.select.i.i = select i1 %.not7.i.i, i32 -1, i32 %29
  br label %Gia_MuxDeref.exit

Gia_MuxDeref.exit:                                ; preds = %2, %22
  %30 = phi i32 [ -1, %2 ], [ %spec.select.i.i, %22 ]
  %31 = tail call i32 @Gia_MuxDeref_rec(ptr noundef nonnull %0, i32 noundef %30)
  tail call void @Gia_MuxStructPrint_rec(ptr noundef nonnull %0, i32 noundef %1, i32 noundef 1)
  %.val.i5 = load ptr, ptr %3, align 8
  %32 = getelementptr inbounds %struct.Gia_Obj_t_, ptr %.val.i5, i64 %4
  %33 = ptrtoint ptr %32 to i64
  %.val3.i.i6 = load i64, ptr %32, align 4
  %34 = trunc i64 %.val3.i.i6 to i32
  %35 = and i32 %34, 536870911
  %36 = sub nsw i32 %1, %35
  %37 = tail call i32 @Gia_MuxRef_rec(ptr noundef nonnull %0, i32 noundef %36)
  %.val11.i7 = load ptr, ptr %3, align 8
  %38 = ptrtoint ptr %.val11.i7 to i64
  %39 = sub i64 %33, %38
  %40 = sdiv exact i64 %39, 12
  %41 = trunc i64 %40 to i32
  %.val3.i12.i8 = load i64, ptr %32, align 4
  %42 = lshr i64 %.val3.i12.i8, 32
  %43 = trunc nuw i64 %42 to i32
  %44 = and i32 %43, 536870911
  %45 = sub nsw i32 %41, %44
  %46 = tail call i32 @Gia_MuxRef_rec(ptr noundef nonnull %0, i32 noundef %45)
  %47 = load ptr, ptr %20, align 8
  %.not.i.i9 = icmp eq ptr %47, null
  br i1 %.not.i.i9, label %Gia_MuxRef.exit, label %48

48:                                               ; preds = %Gia_MuxDeref.exit
  %.val8.i.i10 = load ptr, ptr %3, align 8
  %49 = ptrtoint ptr %.val8.i.i10 to i64
  %50 = sub i64 %33, %49
  %51 = sdiv exact i64 %50, 12
  %sext.i.i11 = shl i64 %51, 32
  %52 = ashr exact i64 %sext.i.i11, 30
  %53 = getelementptr inbounds i8, ptr %47, i64 %52
  %54 = load i32, ptr %53, align 4
  %.not7.i.i12 = icmp eq i32 %54, 0
  %55 = ashr i32 %54, 1
  %spec.select.i.i13 = select i1 %.not7.i.i12, i32 -1, i32 %55
  br label %Gia_MuxRef.exit

Gia_MuxRef.exit:                                  ; preds = %Gia_MuxDeref.exit, %48
  %56 = phi i32 [ -1, %Gia_MuxDeref.exit ], [ %spec.select.i.i13, %48 ]
  %57 = tail call i32 @Gia_MuxRef_rec(ptr noundef nonnull %0, i32 noundef %56)
  %putchar = tail call i32 @putchar(i32 10)
  ret void
}